	.section	__TEXT,__text,regular,pure_instructions
	.build_version macos, 11, 0	sdk_version 11, 3
	.globl	_function                       ## -- Begin function function
	.p2align	4, 0x90
_function:                              ## @function
Lfunc_begin0:
	.file	1 "/Users/louxsoen/Documents/GitHub/Univ_C/bof" "simple.c"
	.loc	1 4 0                           ## simple.c:4:0
	.cfi_startproc
## %bb.0:
	pushq	%rbp
	.cfi_def_cfa_offset 16
	.cfi_offset %rbp, -16
	movq	%rsp, %rbp
	.cfi_def_cfa_register %rbp
	subq	$48, %rsp
	movq	___stack_chk_guard@GOTPCREL(%rip), %rax
	movq	(%rax), %rax
	movq	%rax, -8(%rbp)
	movl	%edi, -40(%rbp)
	movl	%esi, -44(%rbp)
	movl	%edx, -48(%rbp)
	movq	___stack_chk_guard@GOTPCREL(%rip), %rax
	movq	(%rax), %rax
	movq	-8(%rbp), %rcx
	cmpq	%rcx, %rax
	jne	LBB0_2
## %bb.1:
Ltmp0:
	.loc	1 7 1 prologue_end              ## simple.c:7:1
	addq	$48, %rsp
	popq	%rbp
	retq
LBB0_2:
	.loc	1 0 0 is_stmt 0                 ## simple.c:0:0
	callq	___stack_chk_fail
	ud2
Ltmp1:
Lfunc_end0:
	.cfi_endproc
                                        ## -- End function
	.globl	_main                           ## -- Begin function main
	.p2align	4, 0x90
_main:                                  ## @main
Lfunc_begin1:
	.loc	1 10 0 is_stmt 1                ## simple.c:10:0
	.cfi_startproc
## %bb.0:
	pushq	%rbp
	.cfi_def_cfa_offset 16
	.cfi_offset %rbp, -16
	movq	%rsp, %rbp
	.cfi_def_cfa_register %rbp
Ltmp2:
	.loc	1 11 5 prologue_end             ## simple.c:11:5
	movl	$1, %edi
	movl	$2, %esi
	movl	$3, %edx
	callq	_function
	.loc	1 12 1                          ## simple.c:12:1
	popq	%rbp
	retq
Ltmp3:
Lfunc_end1:
	.cfi_endproc
                                        ## -- End function